; ModuleID = 'source-C-CXX/18/199.c'
source_filename = "source-C-CXX/18/199.c"
target datalayout = "e-m:e-p270:32:32-p271:32:32-p272:64:64-i64:64-f80:128-n8:16:32:64-S128"
target triple = "x86_64-pc-linux-gnu"

@.str = private unnamed_addr constant [3 x i8] c"%s\00", align 1
@.str.1 = private unnamed_addr constant [4 x i8] c" %s\00", align 1

; Function Attrs: nounwind sspstrong uwtable
define dso_local i32 @main() local_unnamed_addr #0 {
  %1 = alloca [100 x i8], align 16
  %2 = alloca [100 x i8], align 16
  %3 = alloca [100 x i8], align 16
  %4 = alloca [100 x [100 x i8]], align 16
  %5 = getelementptr inbounds [100 x i8], [100 x i8]* %1, i64 0, i64 0
  call void @llvm.lifetime.start.p0i8(i64 100, i8* nonnull %5) #7
  %6 = getelementptr inbounds [100 x i8], [100 x i8]* %2, i64 0, i64 0
  call void @llvm.lifetime.start.p0i8(i64 100, i8* nonnull %6) #7
  %7 = getelementptr inbounds [100 x i8], [100 x i8]* %3, i64 0, i64 0
  call void @llvm.lifetime.start.p0i8(i64 100, i8* nonnull %7) #7
  %8 = call i32 (i8*, ...) bitcast (i32 (...)* @gets to i32 (i8*, ...)*)(i8* nonnull %5) #7
  %9 = call i32 (i8*, ...) bitcast (i32 (...)* @gets to i32 (i8*, ...)*)(i8* nonnull %6) #7
  %10 = call i32 (i8*, ...) bitcast (i32 (...)* @gets to i32 (i8*, ...)*)(i8* nonnull %7) #7
  %11 = getelementptr inbounds [100 x [100 x i8]], [100 x [100 x i8]]* %4, i64 0, i64 0, i64 0
  call void @llvm.lifetime.start.p0i8(i64 10000, i8* nonnull %11) #7
  call void @llvm.memset.p0i8.i64(i8* noundef nonnull align 16 dereferenceable(10000) %11, i8 0, i64 10000, i1 false)
  br label %12

12:                                               ; preds = %30, %0
  %13 = phi i64 [ %33, %30 ], [ 0, %0 ]
  %14 = phi i32 [ %31, %30 ], [ 0, %0 ]
  %15 = phi i32 [ %32, %30 ], [ 0, %0 ]
  %16 = getelementptr inbounds [100 x i8], [100 x i8]* %1, i64 0, i64 %13
  %17 = load i8, i8* %16, align 1, !tbaa !5
  switch i8 %17, label %23 [
    i8 0, label %18
    i8 32, label %28
  ]

18:                                               ; preds = %12
  %19 = icmp slt i32 %14, 0
  br i1 %19, label %56, label %20

20:                                               ; preds = %18
  %21 = add nuw i32 %14, 1
  %22 = zext i32 %21 to i64
  br label %40

23:                                               ; preds = %12
  %24 = sext i32 %14 to i64
  %25 = sext i32 %15 to i64
  %26 = getelementptr inbounds [100 x [100 x i8]], [100 x [100 x i8]]* %4, i64 0, i64 %24, i64 %25
  store i8 %17, i8* %26, align 1, !tbaa !5
  %27 = add nsw i32 %15, 1
  br label %30

28:                                               ; preds = %12
  %29 = add nsw i32 %14, 1
  br label %30

30:                                               ; preds = %23, %28
  %31 = phi i32 [ %14, %23 ], [ %29, %28 ]
  %32 = phi i32 [ %27, %23 ], [ 0, %28 ]
  %33 = add nuw i64 %13, 1
  br label %12, !llvm.loop !8

34:                                               ; preds = %47
  br i1 %19, label %56, label %35

35:                                               ; preds = %34
  %36 = add nuw i32 %14, 1
  %37 = zext i32 %36 to i64
  %38 = call i32 (i8*, ...) @printf(i8* nonnull dereferenceable(1) getelementptr inbounds ([3 x i8], [3 x i8]* @.str, i64 0, i64 0), i8* nonnull %11)
  %39 = icmp eq i32 %14, 0
  br i1 %39, label %56, label %50

40:                                               ; preds = %20, %47
  %41 = phi i64 [ 0, %20 ], [ %48, %47 ]
  %42 = getelementptr inbounds [100 x [100 x i8]], [100 x [100 x i8]]* %4, i64 0, i64 %41, i64 0
  %43 = call i32 @strcmp(i8* noundef nonnull %42, i8* noundef nonnull %6) #8
  %44 = icmp eq i32 %43, 0
  br i1 %44, label %45, label %47

45:                                               ; preds = %40
  %46 = call i8* @strcpy(i8* noundef nonnull %42, i8* noundef nonnull %7) #7
  br label %47

47:                                               ; preds = %40, %45
  %48 = add nuw nsw i64 %41, 1
  %49 = icmp eq i64 %48, %22
  br i1 %49, label %34, label %40, !llvm.loop !10

50:                                               ; preds = %35, %50
  %51 = phi i64 [ %54, %50 ], [ 1, %35 ]
  %52 = getelementptr inbounds [100 x [100 x i8]], [100 x [100 x i8]]* %4, i64 0, i64 %51, i64 0
  %53 = call i32 (i8*, ...) @printf(i8* nonnull dereferenceable(1) getelementptr inbounds ([4 x i8], [4 x i8]* @.str.1, i64 0, i64 0), i8* nonnull %52)
  %54 = add nuw nsw i64 %51, 1
  %55 = icmp eq i64 %54, %37
  br i1 %55, label %56, label %50, !llvm.loop !11

56:                                               ; preds = %50, %18, %35, %34
  call void @llvm.lifetime.end.p0i8(i64 10000, i8* nonnull %11) #7
  call void @llvm.lifetime.end.p0i8(i64 100, i8* nonnull %7) #7
  call void @llvm.lifetime.end.p0i8(i64 100, i8* nonnull %6) #7
  call void @llvm.lifetime.end.p0i8(i64 100, i8* nonnull %5) #7
  ret i32 0
}

; Function Attrs: argmemonly mustprogress nofree nosync nounwind willreturn
declare void @llvm.lifetime.start.p0i8(i64 immarg, i8* nocapture) #1

declare i32 @gets(...) local_unnamed_addr #2

; Function Attrs: argmemonly mustprogress nofree nounwind willreturn writeonly
declare void @llvm.memset.p0i8.i64(i8* nocapture writeonly, i8, i64, i1 immarg) #3

; Function Attrs: argmemonly mustprogress nofree nounwind readonly willreturn
declare i32 @strcmp(i8* nocapture, i8* nocapture) local_unnamed_addr #4

; Function Attrs: argmemonly mustprogress nofree nounwind willreturn
declare i8* @strcpy(i8* noalias returned writeonly, i8* noalias nocapture readonly) local_unnamed_addr #5

; Function Attrs: nofree nounwind
declare noundef i32 @printf(i8* nocapture noundef readonly, ...) local_unnamed_addr #6

; Function Attrs: argmemonly mustprogress nofree nosync nounwind willreturn
declare void @llvm.lifetime.end.p0i8(i64 immarg, i8* nocapture) #1


!llvm.module.flags = !{!0, !1, !2, !3}
!llvm.ident = !{!4}

!0 = !{i32 1, !"wchar_size", i32 4}
!1 = !{i32 7, !"PIC Level", i32 2}
!2 = !{i32 7, !"PIE Level", i32 2}
!3 = !{i32 7, !"uwtable", i32 1}
!4 = !{!"clang version 13.0.0"}
!5 = !{!6, !6, i64 0}
!6 = !{!"omnipotent char", !7, i64 0}
!7 = !{!"Simple C/C++ TBAA"}
!8 = distinct !{!8, !9}
!9 = !{!"llvm.loop.mustprogress"}
!10 = distinct !{!10, !9}
!11 = distinct !{!11, !9, !12}
!12 = !{!"llvm.loop.peeled.count", i32 1}
